target datalayout = "e-m:e-p270:32:32-p271:32:32-p272:64:64-i64:64-i128:128-f80:128-n8:16:32:64-S128"
target triple = "x86_64-pc-linux-gnu"

%struct._zend_compiler_globals = type { %struct._zend_stack, ptr, ptr, i32, ptr, ptr, ptr, ptr, i8, i8, i8, i8, i8, %struct._zend_llist, ptr, i8, i8, i8, i8, ptr, i32, i32, %struct._zend_oparray_context, %struct._zend_file_context, ptr, %struct._zend_array, ptr, i64, i8, i8, i8, ptr, ptr, %struct._zend_stack, ptr, i32, ptr, ptr, i64, i64, ptr, ptr, ptr, ptr, i32, %struct._zend_stack }
%struct._zend_llist = type { ptr, ptr, i64, i64, ptr, i8, ptr }
%struct._zend_oparray_context = type { i32, i32, i32, i32, i32, i32, i32, ptr, ptr, i8 }
%struct._zend_file_context = type { %struct._zend_declarables, ptr, i8, i8, ptr, ptr, ptr, %struct._zend_array }
%struct._zend_declarables = type { i64 }
%struct._zend_array = type { %struct._zend_refcounted_h, %union.anon.4, i32, %union.anon.6, i32, i32, i32, i32, i64, ptr }
%struct._zend_refcounted_h = type { i32, %union.anon }
%union.anon = type { i32 }
%union.anon.4 = type { i32 }
%union.anon.6 = type { ptr }
%struct._zend_stack = type { i32, i32, i32, ptr }
%struct._zend_executor_globals = type { %struct._zval_struct, %struct._zval_struct, [32 x ptr], ptr, ptr, %struct._zend_array, %struct._zend_array, ptr, i32, i32, ptr, ptr, ptr, ptr, ptr, ptr, i64, ptr, ptr, i32, i32, i64, i32, i32, i32, i8, i8, %struct.zend_atomic_bool_s, %struct.zend_atomic_bool_s, ptr, i64, ptr, ptr, %struct._zend_array, %struct._zend_array, i32, i8, %struct._zval_struct, %struct._zval_struct, %struct._zend_stack, %struct._zend_stack, %struct._zend_stack, ptr, i32, i32, i64, ptr, ptr, ptr, %struct._zend_objects_store, ptr, ptr, ptr, [3 x %struct._zend_op], ptr, i8, i8, i64, i32, i32, ptr, [16 x %struct._HashTableIterator], ptr, %union._zend_function, %struct._zend_op, %struct._zend_array, i64, %struct.zend_get_gc_buffer, ptr, ptr, ptr, i64, i8, i32, ptr, ptr, i64, %struct._zend_call_stack, i64, i64, [6 x ptr] }
%struct.zend_atomic_bool_s = type { i8 }
%struct._zval_struct = type { %union._zend_value, %union.anon.0, %union.anon.3 }
%union._zend_value = type { i64 }
%union.anon.0 = type { i32 }
%union.anon.3 = type { i32 }
%struct._zend_objects_store = type { ptr, i32, i32, i32 }
%struct._HashTableIterator = type { ptr, i32, i32 }
%union._zend_function = type { %struct._zend_op_array }
%struct._zend_op_array = type { i8, [3 x i8], i32, ptr, ptr, ptr, i32, i32, ptr, ptr, ptr, ptr, i32, i32, i32, i32, ptr, ptr, ptr, ptr, ptr, i32, i32, ptr, ptr, ptr, i32, i32, i32, i32, ptr, ptr, [6 x ptr] }
%struct._zend_op = type { ptr, %union._znode_op, %union._znode_op, %union._znode_op, i32, i32, i8, i8, i8, i8 }
%union._znode_op = type { i32 }
%struct.zend_get_gc_buffer = type { ptr, ptr, ptr }
%struct._zend_call_stack = type { ptr, i64 }
%struct._zend_ini_scanner_globals = type { ptr, ptr, i32, ptr, ptr, ptr, ptr, ptr, i32, %struct._zend_stack, ptr, i32, i32 }
%struct._zend_php_scanner_globals = type { ptr, ptr, i32, ptr, ptr, ptr, ptr, ptr, i32, %struct._zend_stack, %struct._zend_ptr_stack, %struct._zend_stack, i8, i32, i8, ptr, i64, ptr, i64, ptr, ptr, ptr, i32, ptr, ptr }
%struct._zend_ptr_stack = type { i32, i32, ptr, ptr, i8 }
%struct._zend_utility_functions = type { ptr, ptr, ptr, ptr, ptr, ptr, ptr, ptr, ptr, ptr, ptr, ptr, ptr }

@zend_printf_to_smart_string = hidden global ptr null, align 8
@zend_printf_to_smart_str = hidden global ptr null, align 8
@zend_write = global ptr null, align 8
@zend_error_cb = global ptr null, align 8
@zend_printf = global ptr null, align 8
@zend_fopen = global ptr null, align 8
@zend_stream_open_function = global ptr null, align 8
@zend_message_dispatcher_p = internal global ptr null, align 8
@zend_get_configuration_directive_p = internal global ptr null, align 8
@zend_ticks_function = global ptr null, align 8
@zend_on_timeout = global ptr null, align 8
@zend_getenv = global ptr null, align 8
@zend_resolve_path = global ptr null, align 8
@zend_interrupt_function = global ptr null, align 8
@zend_compile_file = external global ptr, align 8
@zend_execute_ex = external global ptr, align 8
@zend_execute_internal = external global ptr, align 8
@zend_compile_string = external global ptr, align 8
@zend_throw_exception_hook = external global ptr, align 8
@gc_collect_cycles = external global ptr, align 8
@.str.4 = private unnamed_addr constant [57 x i8] c"Zend Engine v4.4.0-dev, Copyright (c) Zend Technologies\0A\00", align 1
@zend_version_info = internal global ptr null, align 8
@zend_version_info_length = internal global i32 0, align 4
@compiler_globals = external global %struct._zend_compiler_globals, align 8
@executor_globals = external global %struct._zend_executor_globals, align 8
@module_registry = external global %struct._zend_array, align 8
@ini_scanner_globals = external global %struct._zend_ini_scanner_globals, align 8
@language_scanner_globals = external global %struct._zend_php_scanner_globals, align 8
@zend_string_init_interned = external global ptr, align 8
@.str.5 = private unnamed_addr constant [8 x i8] c"GLOBALS\00", align 1

; Function Attrs: nounwind uwtable
define internal void @zend_init_call_trampoline_op() #0 {
  call void @llvm.memset.p0.i64(ptr align 8 getelementptr inbounds (%struct._zend_executor_globals, ptr @executor_globals, i32 0, i32 64), i8 0, i64 32, i1 false)
  store i8 -98, ptr getelementptr inbounds (%struct._zend_executor_globals, ptr @executor_globals, i32 0, i32 64, i32 6), align 4
  call void @zend_vm_set_opcode_handler(ptr noundef getelementptr inbounds (%struct._zend_executor_globals, ptr @executor_globals, i32 0, i32 64))
  ret void
}

; Function Attrs: nounwind uwtable
define internal void @zend_init_exception_op() #0 {
  call void @llvm.memset.p0.i64(ptr align 8 getelementptr inbounds (%struct._zend_executor_globals, ptr @executor_globals, i32 0, i32 53), i8 0, i64 96, i1 false)
  store i8 -107, ptr getelementptr inbounds (%struct._zend_op, ptr getelementptr inbounds (%struct._zend_executor_globals, ptr @executor_globals, i32 0, i32 53), i32 0, i32 6), align 4
  call void @zend_vm_set_opcode_handler(ptr noundef getelementptr inbounds (%struct._zend_executor_globals, ptr @executor_globals, i32 0, i32 53))
  store i8 -107, ptr getelementptr inbounds (%struct._zend_executor_globals, ptr @executor_globals, i32 0, i32 53, i64 1, i32 6), align 4
  call void @zend_vm_set_opcode_handler(ptr noundef getelementptr inbounds (%struct._zend_op, ptr getelementptr inbounds (%struct._zend_executor_globals, ptr @executor_globals, i32 0, i32 53), i64 1))
  store i8 -107, ptr getelementptr inbounds (%struct._zend_executor_globals, ptr @executor_globals, i32 0, i32 53, i64 2, i32 6), align 4
  call void @zend_vm_set_opcode_handler(ptr noundef getelementptr inbounds (%struct._zend_op, ptr getelementptr inbounds (%struct._zend_executor_globals, ptr @executor_globals, i32 0, i32 53), i64 2))
  ret void
}

; Function Attrs: nounwind uwtable
define internal void @zend_set_default_compile_time_values() #0 {
  store i8 1, ptr getelementptr inbounds (%struct._zend_compiler_globals, ptr @compiler_globals, i32 0, i32 10), align 2
  store i32 4, ptr getelementptr inbounds (%struct._zend_compiler_globals, ptr @compiler_globals, i32 0, i32 21), align 4
  store i32 0, ptr getelementptr inbounds (%struct._zend_compiler_globals, ptr @compiler_globals, i32 0, i32 44), align 8
  ret void
}

; Function Attrs: nounwind uwtable
define internal void @php_scanner_globals_ctor(ptr noundef %0) #0 {
  %2 = alloca ptr, align 8
  store ptr %0, ptr %2, align 8
  %3 = load ptr, ptr %2, align 8
  call void @llvm.memset.p0.i64(ptr align 8 %3, i8 0, i64 248, i1 false)
  ret void
}

; Function Attrs: nounwind uwtable
define internal void @ini_scanner_globals_ctor(ptr noundef %0) #0 {
  %2 = alloca ptr, align 8
  store ptr %0, ptr %2, align 8
  %3 = load ptr, ptr %2, align 8
  call void @llvm.memset.p0.i64(ptr align 8 %3, i8 0, i64 112, i1 false)
  ret void
}

; Function Attrs: nounwind uwtable
define hidden void @zend_startup(ptr noundef %0) #0 {
  %2 = alloca ptr, align 8
  store ptr %0, ptr %2, align 8
  call void @zend_cpu_startup()
  call void @start_memory_manager()
  call void @virtual_cwd_startup()
  call void @zend_startup_hrtime()
  %3 = call i32 @zend_startup_strtod()
  call void @zend_startup_extensions_mechanism()
  %4 = load ptr, ptr %2, align 8
  %5 = getelementptr inbounds %struct._zend_utility_functions, ptr %4, i32 0, i32 0
  %6 = load ptr, ptr %5, align 8
  store ptr %6, ptr @zend_error_cb, align 8
  %7 = load ptr, ptr %2, align 8
  %8 = getelementptr inbounds %struct._zend_utility_functions, ptr %7, i32 0, i32 1
  %9 = load ptr, ptr %8, align 8
  store ptr %9, ptr @zend_printf, align 8
  %10 = load ptr, ptr %2, align 8
  %11 = getelementptr inbounds %struct._zend_utility_functions, ptr %10, i32 0, i32 2
  %12 = load ptr, ptr %11, align 8
  store ptr %12, ptr @zend_write, align 8
  %13 = load ptr, ptr %2, align 8
  %14 = getelementptr inbounds %struct._zend_utility_functions, ptr %13, i32 0, i32 3
  %15 = load ptr, ptr %14, align 8
  store ptr %15, ptr @zend_fopen, align 8
  %16 = load ptr, ptr @zend_fopen, align 8
  %17 = icmp ne ptr %16, null
  br i1 %17, label %19, label %18

18:                                               ; preds = %1
  store ptr @zend_fopen_wrapper, ptr @zend_fopen, align 8
  br label %19

19:                                               ; preds = %18, %1
  %20 = load ptr, ptr %2, align 8
  %21 = getelementptr inbounds %struct._zend_utility_functions, ptr %20, i32 0, i32 8
  %22 = load ptr, ptr %21, align 8
  store ptr %22, ptr @zend_stream_open_function, align 8
  %23 = load ptr, ptr %2, align 8
  %24 = getelementptr inbounds %struct._zend_utility_functions, ptr %23, i32 0, i32 4
  %25 = load ptr, ptr %24, align 8
  store ptr %25, ptr @zend_message_dispatcher_p, align 8
  %26 = load ptr, ptr %2, align 8
  %27 = getelementptr inbounds %struct._zend_utility_functions, ptr %26, i32 0, i32 5
  %28 = load ptr, ptr %27, align 8
  store ptr %28, ptr @zend_get_configuration_directive_p, align 8
  %29 = load ptr, ptr %2, align 8
  %30 = getelementptr inbounds %struct._zend_utility_functions, ptr %29, i32 0, i32 6
  %31 = load ptr, ptr %30, align 8
  store ptr %31, ptr @zend_ticks_function, align 8
  %32 = load ptr, ptr %2, align 8
  %33 = getelementptr inbounds %struct._zend_utility_functions, ptr %32, i32 0, i32 7
  %34 = load ptr, ptr %33, align 8
  store ptr %34, ptr @zend_on_timeout, align 8
  %35 = load ptr, ptr %2, align 8
  %36 = getelementptr inbounds %struct._zend_utility_functions, ptr %35, i32 0, i32 9
  %37 = load ptr, ptr %36, align 8
  store ptr %37, ptr @zend_printf_to_smart_string, align 8
  %38 = load ptr, ptr %2, align 8
  %39 = getelementptr inbounds %struct._zend_utility_functions, ptr %38, i32 0, i32 10
  %40 = load ptr, ptr %39, align 8
  store ptr %40, ptr @zend_printf_to_smart_str, align 8
  %41 = load ptr, ptr %2, align 8
  %42 = getelementptr inbounds %struct._zend_utility_functions, ptr %41, i32 0, i32 11
  %43 = load ptr, ptr %42, align 8
  store ptr %43, ptr @zend_getenv, align 8
  %44 = load ptr, ptr %2, align 8
  %45 = getelementptr inbounds %struct._zend_utility_functions, ptr %44, i32 0, i32 12
  %46 = load ptr, ptr %45, align 8
  store ptr %46, ptr @zend_resolve_path, align 8
  store ptr null, ptr @zend_interrupt_function, align 8
  store ptr @compile_file, ptr @zend_compile_file, align 8
  store ptr @execute_ex, ptr @zend_execute_ex, align 8
  store ptr null, ptr @zend_execute_internal, align 8
  store ptr @compile_string, ptr @zend_compile_string, align 8
  store ptr null, ptr @zend_throw_exception_hook, align 8
  store ptr @zend_gc_collect_cycles, ptr @gc_collect_cycles, align 8
  call void @zend_vm_init()
  %47 = call noalias ptr @strdup(ptr noundef @.str.4) #18
  store ptr %47, ptr @zend_version_info, align 8
  store i32 56, ptr @zend_version_info_length, align 4
  %48 = call noalias ptr @malloc(i64 noundef 56) #17
  store ptr %48, ptr getelementptr inbounds (%struct._zend_compiler_globals, ptr @compiler_globals, i32 0, i32 5), align 8
  %49 = call noalias ptr @malloc(i64 noundef 56) #17
  store ptr %49, ptr getelementptr inbounds (%struct._zend_compiler_globals, ptr @compiler_globals, i32 0, i32 6), align 8
  %50 = call noalias ptr @malloc(i64 noundef 56) #17
  store ptr %50, ptr getelementptr inbounds (%struct._zend_compiler_globals, ptr @compiler_globals, i32 0, i32 7), align 8
  %51 = call noalias ptr @malloc(i64 noundef 56) #17
  store ptr %51, ptr getelementptr inbounds (%struct._zend_executor_globals, ptr @executor_globals, i32 0, i32 12), align 8
  %52 = load ptr, ptr getelementptr inbounds (%struct._zend_compiler_globals, ptr @compiler_globals, i32 0, i32 5), align 8
  call void @_zend_hash_init(ptr noundef %52, i32 noundef 1024, ptr noundef @zend_function_dtor, i1 noundef zeroext true)
  %53 = load ptr, ptr getelementptr inbounds (%struct._zend_compiler_globals, ptr @compiler_globals, i32 0, i32 6), align 8
  call void @_zend_hash_init(ptr noundef %53, i32 noundef 64, ptr noundef @destroy_zend_class, i1 noundef zeroext true)
  %54 = load ptr, ptr getelementptr inbounds (%struct._zend_compiler_globals, ptr @compiler_globals, i32 0, i32 7), align 8
  call void @_zend_hash_init(ptr noundef %54, i32 noundef 8, ptr noundef @auto_global_dtor, i1 noundef zeroext true)
  %55 = load ptr, ptr getelementptr inbounds (%struct._zend_executor_globals, ptr @executor_globals, i32 0, i32 12), align 8
  call void @_zend_hash_init(ptr noundef %55, i32 noundef 128, ptr noundef @free_zend_constant, i1 noundef zeroext true)
  call void @_zend_hash_init(ptr noundef @module_registry, i32 noundef 32, ptr noundef @module_destructor_zval, i1 noundef zeroext true)
  call void @zend_init_rsrc_list_dtors()
  call void @ini_scanner_globals_ctor(ptr noundef @ini_scanner_globals)
  call void @php_scanner_globals_ctor(ptr noundef @language_scanner_globals)
  call void @zend_set_default_compile_time_values()
  store ptr null, ptr getelementptr inbounds (%struct._zend_compiler_globals, ptr @compiler_globals, i32 0, i32 36), align 8
  store ptr inttoptr (i64 -1 to ptr), ptr getelementptr inbounds (%struct._zend_compiler_globals, ptr @compiler_globals, i32 0, i32 37), align 8
  store i64 0, ptr getelementptr inbounds (%struct._zend_compiler_globals, ptr @compiler_globals, i32 0, i32 38), align 8
  store i64 0, ptr getelementptr inbounds (%struct._zend_compiler_globals, ptr @compiler_globals, i32 0, i32 39), align 8
  store i32 32759, ptr getelementptr inbounds (%struct._zend_executor_globals, ptr @executor_globals, i32 0, i32 8), align 8
  call void @zend_interned_strings_init()
  %56 = call i32 @zend_startup_builtin_functions()
  call void @zend_register_standard_constants()
  %57 = load ptr, ptr @zend_string_init_interned, align 8
  %58 = call ptr %57(ptr noundef @.str.5, i64 noundef 7, i1 noundef zeroext true)
  %59 = call i32 @zend_register_auto_global(ptr noundef %58, i1 noundef zeroext true, ptr noundef @php_auto_globals_create_globals)
  call void @zend_init_rsrc_plist()
  call void @zend_init_exception_op()
  call void @zend_init_call_trampoline_op()
  call void @zend_ini_startup()
  %60 = call i32 @zend_optimizer_startup()
  ret void
}