; Function Attrs: nounwind uwtable
define hidden void @zend_startup(ptr nocapture noundef readonly %0) local_unnamed_addr #0 {
  tail call void @zend_cpu_startup() #30
  tail call void @start_memory_manager() #30
  tail call void @virtual_cwd_startup() #30
  tail call void @zend_startup_hrtime() #30
  %2 = tail call i32 @zend_startup_strtod() #30
  tail call void @zend_startup_extensions_mechanism() #30
  %3 = load ptr, ptr %0, align 8
  store ptr %3, ptr @zend_error_cb, align 8
  %4 = getelementptr inbounds i8, ptr %0, i64 8
  %5 = load ptr, ptr %4, align 8
  store ptr %5, ptr @zend_printf, align 8
  %6 = getelementptr inbounds i8, ptr %0, i64 16
  %7 = load ptr, ptr %6, align 8
  store ptr %7, ptr @zend_write, align 8
  %8 = getelementptr inbounds i8, ptr %0, i64 24
  %9 = load ptr, ptr %8, align 8
  %.not = icmp eq ptr %9, null
  %spec.store.select = select i1 %.not, ptr @zend_fopen_wrapper, ptr %9
  store ptr %spec.store.select, ptr @zend_fopen, align 8
  %10 = getelementptr inbounds i8, ptr %0, i64 64
  %11 = load ptr, ptr %10, align 8
  store ptr %11, ptr @zend_stream_open_function, align 8
  %12 = getelementptr inbounds i8, ptr %0, i64 32
  %13 = load ptr, ptr %12, align 8
  store ptr %13, ptr @zend_message_dispatcher_p, align 8
  %14 = getelementptr inbounds i8, ptr %0, i64 40
  %15 = load ptr, ptr %14, align 8
  store ptr %15, ptr @zend_get_configuration_directive_p, align 8
  %16 = getelementptr inbounds i8, ptr %0, i64 48
  %17 = load ptr, ptr %16, align 8
  store ptr %17, ptr @zend_ticks_function, align 8
  %18 = getelementptr inbounds i8, ptr %0, i64 56
  %19 = load ptr, ptr %18, align 8
  store ptr %19, ptr @zend_on_timeout, align 8
  %20 = getelementptr inbounds i8, ptr %0, i64 72
  %21 = load ptr, ptr %20, align 8
  store ptr %21, ptr @zend_printf_to_smart_string, align 8
  %22 = getelementptr inbounds i8, ptr %0, i64 80
  %23 = load ptr, ptr %22, align 8
  store ptr %23, ptr @zend_printf_to_smart_str, align 8
  %24 = getelementptr inbounds i8, ptr %0, i64 88
  %25 = load ptr, ptr %24, align 8
  store ptr %25, ptr @zend_getenv, align 8
  %26 = getelementptr inbounds i8, ptr %0, i64 96
  %27 = load ptr, ptr %26, align 8
  store ptr %27, ptr @zend_resolve_path, align 8
  store ptr null, ptr @zend_interrupt_function, align 8
  store ptr @compile_file, ptr @zend_compile_file, align 8
  store ptr @execute_ex, ptr @zend_execute_ex, align 8
  store ptr null, ptr @zend_execute_internal, align 8
  store ptr @compile_string, ptr @zend_compile_string, align 8
  store ptr null, ptr @zend_throw_exception_hook, align 8
  store ptr @zend_gc_collect_cycles, ptr @gc_collect_cycles, align 8
  tail call void @zend_vm_init() #30
  %28 = tail call noalias dereferenceable_or_null(57) ptr @strdup(ptr noundef nonnull @.str.4) #30
  store ptr %28, ptr @zend_version_info, align 8
  store i32 56, ptr @zend_version_info_length, align 4
  %29 = tail call noalias dereferenceable_or_null(56) ptr @malloc(i64 noundef 56) #32
  store ptr %29, ptr getelementptr inbounds (%struct._zend_compiler_globals, ptr @compiler_globals, i64 0, i32 5), align 8
  %30 = tail call noalias dereferenceable_or_null(56) ptr @malloc(i64 noundef 56) #32
  store ptr %30, ptr getelementptr inbounds (%struct._zend_compiler_globals, ptr @compiler_globals, i64 0, i32 6), align 8
  %31 = tail call noalias dereferenceable_or_null(56) ptr @malloc(i64 noundef 56) #32
  store ptr %31, ptr getelementptr inbounds (%struct._zend_compiler_globals, ptr @compiler_globals, i64 0, i32 7), align 8
  %32 = tail call noalias dereferenceable_or_null(56) ptr @malloc(i64 noundef 56) #32
  store ptr %32, ptr getelementptr inbounds (%struct._zend_executor_globals, ptr @executor_globals, i64 0, i32 12), align 8
  tail call void @_zend_hash_init(ptr noundef %29, i32 noundef 1024, ptr noundef nonnull @zend_function_dtor, i1 noundef zeroext true) #30
  %33 = load ptr, ptr getelementptr inbounds (%struct._zend_compiler_globals, ptr @compiler_globals, i64 0, i32 6), align 8
  tail call void @_zend_hash_init(ptr noundef %33, i32 noundef 64, ptr noundef nonnull @destroy_zend_class, i1 noundef zeroext true) #30
  %34 = load ptr, ptr getelementptr inbounds (%struct._zend_compiler_globals, ptr @compiler_globals, i64 0, i32 7), align 8
  tail call void @_zend_hash_init(ptr noundef %34, i32 noundef 8, ptr noundef nonnull @auto_global_dtor, i1 noundef zeroext true) #30
  %35 = load ptr, ptr getelementptr inbounds (%struct._zend_executor_globals, ptr @executor_globals, i64 0, i32 12), align 8
  tail call void @_zend_hash_init(ptr noundef %35, i32 noundef 128, ptr noundef nonnull @free_zend_constant, i1 noundef zeroext true) #30
  tail call void @_zend_hash_init(ptr noundef nonnull @module_registry, i32 noundef 32, ptr noundef nonnull @module_destructor_zval, i1 noundef zeroext true) #30
  tail call void @zend_init_rsrc_list_dtors() #30
  tail call void @llvm.memset.p0.i64(ptr noundef nonnull align 8 dereferenceable(112) @ini_scanner_globals, i8 0, i64 112, i1 false)
  tail call void @llvm.memset.p0.i64(ptr noundef nonnull align 8 dereferenceable(248) @language_scanner_globals, i8 0, i64 248, i1 false)
  store i8 1, ptr getelementptr inbounds (%struct._zend_compiler_globals, ptr @compiler_globals, i64 0, i32 10), align 2
  store i32 4, ptr getelementptr inbounds (%struct._zend_compiler_globals, ptr @compiler_globals, i64 0, i32 21), align 4
  store i32 0, ptr getelementptr inbounds (%struct._zend_compiler_globals, ptr @compiler_globals, i64 0, i32 44), align 8
  store ptr null, ptr getelementptr inbounds (%struct._zend_compiler_globals, ptr @compiler_globals, i64 0, i32 36), align 8
  store ptr inttoptr (i64 -1 to ptr), ptr getelementptr inbounds (%struct._zend_compiler_globals, ptr @compiler_globals, i64 0, i32 37), align 8
  tail call void @llvm.memset.p0.i64(ptr noundef nonnull align 8 dereferenceable(16) getelementptr inbounds (%struct._zend_compiler_globals, ptr @compiler_globals, i64 0, i32 38), i8 0, i64 16, i1 false)
  store i32 32759, ptr getelementptr inbounds (%struct._zend_executor_globals, ptr @executor_globals, i64 0, i32 8), align 8
  tail call void @zend_interned_strings_init() #30
  %36 = tail call i32 @zend_startup_builtin_functions() #30
  tail call void @zend_register_standard_constants() #30
  %37 = load ptr, ptr @zend_string_init_interned, align 8
  %38 = tail call ptr %37(ptr noundef nonnull @.str.5, i64 noundef 7, i1 noundef zeroext true) #30
  %39 = tail call i32 @zend_register_auto_global(ptr noundef %38, i1 noundef zeroext true, ptr noundef nonnull @php_auto_globals_create_globals) #30
  tail call void @zend_init_rsrc_plist() #30
  tail call void @llvm.memset.p0.i64(ptr noundef nonnull align 8 dereferenceable(96) getelementptr inbounds (%struct._zend_executor_globals, ptr @executor_globals, i64 0, i32 53), i8 0, i64 96, i1 false)
  store i8 -107, ptr getelementptr inbounds (%struct._zend_executor_globals, ptr @executor_globals, i64 0, i32 53, i64 0, i32 6), align 4
  tail call void @zend_vm_set_opcode_handler(ptr noundef nonnull getelementptr inbounds (%struct._zend_executor_globals, ptr @executor_globals, i64 0, i32 53)) #30
  store i8 -107, ptr getelementptr inbounds (%struct._zend_executor_globals, ptr @executor_globals, i64 0, i32 53, i64 1, i32 6), align 4
  tail call void @zend_vm_set_opcode_handler(ptr noundef nonnull getelementptr inbounds (%struct._zend_executor_globals, ptr @executor_globals, i64 0, i32 53, i64 1)) #30
  store i8 -107, ptr getelementptr inbounds (%struct._zend_executor_globals, ptr @executor_globals, i64 0, i32 53, i64 2, i32 6), align 4
  tail call void @zend_vm_set_opcode_handler(ptr noundef nonnull getelementptr inbounds (%struct._zend_executor_globals, ptr @executor_globals, i64 0, i32 53, i64 2)) #30
  tail call void @llvm.memset.p0.i64(ptr noundef nonnull align 8 dereferenceable(32) getelementptr inbounds (%struct._zend_executor_globals, ptr @executor_globals, i64 0, i32 64), i8 0, i64 32, i1 false)
  store i8 -98, ptr getelementptr inbounds (%struct._zend_executor_globals, ptr @executor_globals, i64 0, i32 64, i32 6), align 4
  tail call void @zend_vm_set_opcode_handler(ptr noundef nonnull getelementptr inbounds (%struct._zend_executor_globals, ptr @executor_globals, i64 0, i32 64)) #30
  tail call void @zend_ini_startup() #30
  %40 = tail call i32 @zend_optimizer_startup() #30
  ret void
}